(dp1
I1
L64L
sI2
L434L
sI3
L754L
sI4
L1204L
sI5
L1566L
sI6
L1978L
sI7
L2336L
sI8
L2682L
sI9
L3014L
sI10
L3306L
sI11
L3702L
sI12
L4006L
sI13
L4320L
sI14
L4674L
sI15
L5076L
sI16
L5414L
sI17
L5706L
sI18
L6000L
sI19
L6340L
sI20
L6662L
sI21
L7030L
sI22
L7482L
sI23
L7862L
sI24
L8220L
sI25
L8616L
sI26
L8940L
sI27
L9304L
sI28
L10126L
sI29
L10608L
sI30
L10938L
sI31
L11356L
sI32
L11738L
sI33
L12158L
sI34
L12516L
sI35
L12878L
sI36
L13264L
sI37
L13758L
sI38
L14086L
sI39
L14472L
sI40
L14854L
sI41
L15292L
sI42
L15682L
sI43
L16042L
sI44
L16406L
sI45
L16734L
sI46
L17034L
sI47
L17382L
sI48
L17736L
sI49
L18130L
sI50
L18536L
sI51
L18858L
sI52
L19268L
sI53
L19550L
sI54
L19912L
sI55
L20270L
sI56
L20572L
sI57
L20926L
sI58
L21296L
sI59
L21622L
sI60
L21978L
sI61
L22312L
sI62
L22688L
sI63
L23076L
sI64
L23458L
sI65
L23836L
sI66
L24168L
sI67
L24510L
sI68
L24900L
sI69
L25252L
sI70
L25634L
sI71
L25988L
sI72
L26352L
sI73
L26714L
sI74
L27116L
sI75
L27456L
sI76
L27838L
sI77
L28258L
sI78
L28568L
sI79
L29160L
sI80
L29532L
sI81
L29974L
sI82
L30390L
sI83
L30732L
sI84
L31240L
sI85
L31860L
sI86
L32662L
sI87
L33402L
sI88
L33912L
sI89
L34164L
sI90
L34890L
sI91
L35512L
sI92
L36094L
sI93
L36622L
sI94
L37040L
sI95
L37808L
sI96
L38486L
sI97
L39106L
sI98
L39702L
sI99
L40126L
sI100
L40582L
sI101
L40806L
sI102
L41094L
sI103
L41480L
sI104
L42188L
sI105
L43168L
sI106
L43554L
sI107
L43848L
sI108
L44250L
sI109
L44618L
sI110
L44990L
sI111
L45370L
sI112
L45702L
sI113
L46124L
sI114
L46830L
sI115
L47150L
sI116
L47498L
sI117
L47896L
sI118
L48350L
sI119
L49104L
sI120
L49776L
sI121
L50114L
sI122
L50440L
sI123
L51012L
sI124
L51736L
sI125
L52134L
sI126
L52474L
sI127
L53042L
sI128
L53384L
sI129
L53678L
sI130
L54230L
sI131
L54760L
sI132
L55136L
sI133
L55384L
sI134
L55692L
sI135
L55912L
sI136
L56320L
sI137
L56664L
sI138
L57094L
sI139
L57452L
sI140
L57768L
sI141
L58540L
sI142
L58824L
sI143
L59158L
sI144
L59554L
sI145
L59856L
sI146
L60172L
sI147
L60938L
sI148
L61166L
sI149
L61796L
sI150
L62252L
s.